; Function Attrs: mustprogress uwtable
define hidden void @ncnn_net_register_custom_layer_by_typeindex(ptr nocapture noundef %0, i32 noundef %1, ptr noundef %2, ptr noundef %3, ptr noundef %4) local_unnamed_addr #1 {
  %6 = tail call noalias dereferenceable_or_null(32) ptr @malloc(i64 noundef 32) #23
  store ptr %2, ptr %6, align 8
  %7 = getelementptr inbounds nuw i8, ptr %6, i64 8
  store ptr %3, ptr %7, align 8
  %8 = getelementptr inbounds nuw i8, ptr %6, i64 16
  store ptr %4, ptr %8, align 8
  %9 = getelementptr inbounds nuw i8, ptr %0, i64 8
  %10 = load ptr, ptr %9, align 8
  %11 = getelementptr inbounds nuw i8, ptr %6, i64 24
  store ptr %10, ptr %11, align 8
  store ptr %6, ptr %9, align 8
  %12 = load ptr, ptr %0, align 8
  %13 = tail call noundef i32 @_ZN4ncnn3Net21register_custom_layerEiPFPNS_5LayerEPvEPFvS2_S3_ES3_(ptr noundef nonnull align 8 dereferenceable(80) %12, i32 noundef %1, ptr noundef nonnull @_ZL27__Layer_c_api_layer_creatorPv, ptr noundef nonnull @_ZL29__Layer_c_api_layer_destroyerPN4ncnn5LayerEPv, ptr noundef nonnull %6)
  ret void
}